Certificate:
    Data:
        Version: 3 (0x2)
        Serial Number: 1 (0x1)
    Signature Algorithm: sha256WithRSAEncryption
        Issuer: C=cn, ST=cq, O=zl, OU=zl, CN=zl/emailAddress=zl03jsj@163.com
        Validity
            Not Before: Jul 14 09:49:36 2016 GMT
            Not After : Jul 12 09:49:36 2026 GMT
        Subject: C=cn, ST=cq, O=zl, OU=zl, CN=zl/emailAddress=zl03jsj@163.com
        Subject Public Key Info:
            Public Key Algorithm: rsaEncryption
                Public-Key: (2048 bit)
                Modulus:
                    00:9e:f7:17:8b:8a:5b:36:87:b3:f9:ca:7b:75:1b:
                    8f:88:24:cb:e1:85:7d:4b:e8:10:23:2b:c3:3d:78:
                    c5:49:bd:a1:43:ab:dd:71:01:61:88:64:40:13:82:
                    0e:70:06:ae:82:ef:37:00:63:61:de:e5:4f:76:ee:
                    69:bf:93:dd:a1:67:7c:7b:9f:03:46:b0:19:cd:08:
                    9c:91:ce:cc:0f:12:ea:52:da:0b:cc:6e:57:46:a6:
                    11:5a:ac:65:10:53:7f:0b:e4:a9:86:7c:c7:25:da:
                    bf:db:6b:c7:be:89:3b:8f:7b:f6:5a:0e:13:af:ad:
                    33:5b:ad:26:0b:55:b4:38:77:37:ea:ea:09:fc:ec:
                    c5:c4:6e:5e:42:3c:02:64:80:a6:46:e5:c4:2c:b9:
                    7f:19:ea:12:f2:87:34:58:c1:fc:19:ba:84:9c:86:
                    b9:fd:65:ae:5d:7e:07:38:e0:1e:04:9a:cd:31:bc:
                    df:93:c4:db:17:fa:be:35:c0:b8:ce:8e:a6:2f:cf:
                    05:32:15:73:1b:6f:49:a8:af:46:2b:f6:bf:a7:65:
                    a8:10:e6:36:4f:13:bc:9e:64:e5:b4:b1:c4:85:f7:
                    95:a3:da:4c:52:3d:f2:d0:77:7d:f3:41:3f:d9:25:
                    94:b4:a1:30:b2:a2:2b:75:22:cc:1c:9e:70:be:a4:
                    59:6d
                Exponent: 65537 (0x10001)
        X509v3 extensions:
            X509v3 Basic Constraints: 
                CA:FALSE
            Netscape Comment: 
                OpenSSL Generated Certificate
            X509v3 Subject Key Identifier: 
                4C:BB:16:F3:C3:A9:B9:46:26:4D:9E:9A:C2:DC:35:F9:60:95:BF:CB
            X509v3 Authority Key Identifier: 
                keyid:4C:BB:16:F3:C3:A9:B9:46:26:4D:9E:9A:C2:DC:35:F9:60:95:BF:CB

    Signature Algorithm: sha256WithRSAEncryption
         92:b3:dd:b2:63:1b:9c:b8:6b:ca:cd:07:97:75:18:1a:07:28:
         b5:c8:76:e2:6f:e4:c5:36:d4:d2:05:96:f2:74:42:0e:ee:3e:
         0c:5d:ec:02:27:ad:39:b5:9a:44:fa:3b:5a:ad:c7:8d:73:2e:
         7a:2e:0f:4b:1a:45:ae:db:9d:c4:fb:f2:ff:62:0d:4a:6d:4d:
         e0:93:eb:07:e0:96:cf:8d:3c:3e:49:ac:96:13:e6:9c:b9:7b:
         cd:ba:da:09:b0:9f:d6:2a:26:91:e7:dc:d4:92:c2:3b:de:45:
         7f:1e:54:b7:a1:7f:31:8a:4d:57:fd:35:91:7d:49:dd:97:03:
         9c:c4:70:c3:45:a4:99:df:be:27:0c:fa:46:64:68:d7:54:8b:
         56:a0:e4:9d:5b:01:d1:7e:c3:84:f3:3c:24:11:c6:fe:de:3c:
         37:82:15:71:fd:a2:3a:e1:7f:2a:34:ec:11:37:70:bd:98:a1:
         a4:ec:86:64:56:57:14:70:85:68:34:d5:18:84:e7:af:61:a7:
         96:41:b3:33:b1:04:fe:44:1f:be:b5:cd:95:e9:91:10:d6:af:
         cf:76:8d:24:11:ff:da:7c:0d:46:a6:91:d5:48:ab:5e:51:6e:
         d0:0b:cf:71:30:15:6f:e4:cc:14:4e:a3:51:6f:d4:a4:70:66:
         2f:e2:cf:66
-----BEGIN CERTIFICATE-----
MIIDuDCCAqCgAwIBAgIBATANBgkqhkiG9w0BAQsFADBhMQswCQYDVQQGEwJjbjEL
MAkGA1UECAwCY3ExCzAJBgNVBAoMAnpsMQswCQYDVQQLDAJ6bDELMAkGA1UEAwwC
emwxHjAcBgkqhkiG9w0BCQEWD3psMDNqc2pAMTYzLmNvbTAeFw0xNjA3MTQwOTQ5
MzZaFw0yNjA3MTIwOTQ5MzZaMGExCzAJBgNVBAYTAmNuMQswCQYDVQQIDAJjcTEL
MAkGA1UECgwCemwxCzAJBgNVBAsMAnpsMQswCQYDVQQDDAJ6bDEeMBwGCSqGSIb3
DQEJARYPemwwM2pzakAxNjMuY29tMIIBIjANBgkqhkiG9w0BAQEFAAOCAQ8AMIIB
CgKCAQEAnvcXi4pbNoez+cp7dRuPiCTL4YV9S+gQIyvDPXjFSb2hQ6vdcQFhiGRA
E4IOcAaugu83AGNh3uVPdu5pv5PdoWd8e58DRrAZzQickc7MDxLqUtoLzG5XRqYR
WqxlEFN/C+SphnzHJdq/22vHvok7j3v2Wg4Tr60zW60mC1W0OHc36uoJ/OzFxG5e
QjwCZICmRuXELLl/GeoS8oc0WMH8GbqEnIa5/WWuXX4HOOAeBJrNMbzfk8TbF/q+
NcC4zo6mL88FMhVzG29JqK9GK/a/p2WoEOY2TxO8nmTltLHEhfeVo9pMUj3y0Hd9
80E/2SWUtKEwsqIrdSLMHJ5wvqRZbQIDAQABo3sweTAJBgNVHRMEAjAAMCwGCWCG
SAGG+EIBDQQfFh1PcGVuU1NMIEdlbmVyYXRlZCBDZXJ0aWZpY2F0ZTAdBgNVHQ4E
FgQUTLsW88OpuUYmTZ6awtw1+WCVv8swHwYDVR0jBBgwFoAUTLsW88OpuUYmTZ6a
wtw1+WCVv8swDQYJKoZIhvcNAQELBQADggEBAJKz3bJjG5y4a8rNB5d1GBoHKLXI
duJv5MU21NIFlvJ0Qg7uPgxd7AInrTm1mkT6O1qtx41zLnouD0saRa7bncT78v9i
DUptTeCT6wfgls+NPD5JrJYT5py5e8262gmwn9YqJpHn3NSSwjveRX8eVLehfzGK
TVf9NZF9Sd2XA5zEcMNFpJnfvicM+kZkaNdUi1ag5J1bAdF+w4TzPCQRxv7ePDeC
FXH9ojrhfyo07BE3cL2YoaTshmRWVxRwhWg01RiE569hp5ZBszOxBP5EH761zZXp
kRDWr892jSQR/9p8DUamkdVIq15RbtALz3EwFW/kzBROo1Fv1KRwZi/iz2Y=
-----END CERTIFICATE-----
